; ModuleID = '54/1805.c'
source_filename = "54/1805.c"
target datalayout = "e-m:e-p270:32:32-p271:32:32-p272:64:64-i64:64-f80:128-n8:16:32:64-S128"
target triple = "x86_64-pc-linux-gnu"

@.str = private unnamed_addr constant [5 x i8] c"%d%d\00", align 1
@.str.1 = private unnamed_addr constant [3 x i8] c"%d\00", align 1

; Function Attrs: noinline nounwind uwtable
define dso_local i32 @main() #0 {
  %1 = alloca i32, align 4
  %2 = alloca i32, align 4
  %3 = alloca i32, align 4
  %4 = alloca i32, align 4
  %5 = alloca i32, align 4
  %6 = alloca i32, align 4
  %7 = alloca i32, align 4
  %8 = alloca i32, align 4
  %9 = alloca i32, align 4
  %10 = alloca i32, align 4
  %11 = alloca i32, align 4
  store i32 0, i32* %1, align 4
  store i32 1, i32* %4, align 4
  store i32 1, i32* %5, align 4
  %12 = call i32 (i8*, ...) @__isoc99_scanf(i8* getelementptr inbounds ([5 x i8], [5 x i8]* @.str, i64 0, i64 0), i32* %2, i32* %3)
  br label %13

13:                                               ; preds = %0, %55
  store i32 0, i32* %10, align 4
  %14 = load i32, i32* %5, align 4
  store i32 %14, i32* %8, align 4
  store i32 1, i32* %11, align 4
  br label %15

15:                                               ; preds = %40, %13
  %16 = load i32, i32* %11, align 4
  %17 = load i32, i32* %2, align 4
  %18 = icmp sle i32 %16, %17
  br i1 %18, label %19, label %43

19:                                               ; preds = %15
  %20 = load i32, i32* %8, align 4
  store i32 %20, i32* %9, align 4
  %21 = load i32, i32* %8, align 4
  %22 = load i32, i32* %2, align 4
  %23 = sdiv i32 %21, %22
  store i32 %23, i32* %6, align 4
  %24 = load i32, i32* %8, align 4
  %25 = load i32, i32* %6, align 4
  %26 = load i32, i32* %2, align 4
  %27 = mul nsw i32 %25, %26
  %28 = sub nsw i32 %24, %27
  store i32 %28, i32* %7, align 4
  %29 = load i32, i32* %7, align 4
  %30 = load i32, i32* %3, align 4
  %31 = icmp ne i32 %29, %30
  br i1 %31, label %32, label %33

32:                                               ; preds = %19
  store i32 1, i32* %10, align 4
  br label %43

33:                                               ; preds = %19
  %34 = load i32, i32* %9, align 4
  %35 = load i32, i32* %7, align 4
  %36 = sub nsw i32 %34, %35
  %37 = load i32, i32* %6, align 4
  %38 = sub nsw i32 %36, %37
  store i32 %38, i32* %8, align 4
  br label %39

39:                                               ; preds = %33
  br label %40

40:                                               ; preds = %39
  %41 = load i32, i32* %11, align 4
  %42 = add nsw i32 %41, 1
  store i32 %42, i32* %11, align 4
  br label %15

43:                                               ; preds = %32, %15
  %44 = load i32, i32* %10, align 4
  %45 = icmp eq i32 %44, 0
  br i1 %45, label %46, label %52

46:                                               ; preds = %43
  %47 = load i32, i32* %6, align 4
  %48 = icmp sge i32 %47, 1
  br i1 %48, label %49, label %52

49:                                               ; preds = %46
  %50 = load i32, i32* %5, align 4
  %51 = call i32 (i8*, ...) @printf(i8* getelementptr inbounds ([3 x i8], [3 x i8]* @.str.1, i64 0, i64 0), i32 %50)
  br label %56

52:                                               ; preds = %46, %43
  %53 = load i32, i32* %5, align 4
  %54 = add nsw i32 %53, 1
  store i32 %54, i32* %5, align 4
  br label %55

55:                                               ; preds = %52
  br label %13

56:                                               ; preds = %49
  ret i32 0
}

declare dso_local i32 @__isoc99_scanf(i8*, ...) #1

declare dso_local i32 @printf(i8*, ...) #1


!llvm.module.flags = !{!0}
!llvm.ident = !{!1}

!0 = !{i32 1, !"wchar_size", i32 4}
!1 = !{!"clang version 10.0.0-4ubuntu1 "}
